   1               		.file	"iic.c"
   2               	__SREG__ = 0x3f
   3               	__SP_H__ = 0x3e
   4               	__SP_L__ = 0x3d
   5               	__CCP__  = 0x34
   6               	__tmp_reg__ = 0
   7               	__zero_reg__ = 1
  15               	.Ltext0:
  16               	.global	TWIInt
  18               	TWIInt:
  19               	.LFB8:
  20               	.LM1:
  21               	/* prologue: function */
  22               	/* frame size = 0 */
  23               	.LM2:
  24 0000 1092 BC00 		sts 188,__zero_reg__
  25               	.LM3:
  26 0004 80E2      		ldi r24,lo8(32)
  27 0006 8093 B800 		sts 184,r24
  28               	.LM4:
  29 000a 1092 B900 		sts 185,__zero_reg__
  30               	/* epilogue start */
  31               	.LM5:
  32 000e 0895      		ret
  33               	.LFE8:
  35               	.global	I2C_Write
  37               	I2C_Write:
  38               	.LFB9:
  39               	.LM6:
  40               	.LVL0:
  41               	/* prologue: function */
  42               	/* frame size = 0 */
  43 0010 982F      		mov r25,r24
  44               	.LM7:
  45 0012 84EA      		ldi r24,lo8(-92)
  46               	.LVL1:
  47 0014 8093 BC00 		sts 188,r24
  48               	.L4:
  49               	.LM8:
  50 0018 8091 BC00 		lds r24,188
  51 001c 87FF      		sbrs r24,7
  52 001e 00C0      		rjmp .L4
  53               	.LM9:
  54 0020 8091 B900 		lds r24,185
  55 0024 887F      		andi r24,lo8(-8)
  56 0026 8830      		cpi r24,lo8(8)
  57 0028 01F4      		brne .L5
  58               	.LM10:
  59 002a 80E9      		ldi r24,lo8(-112)
  60 002c 8093 BB00 		sts 187,r24
  61 0030 84E8      		ldi r24,lo8(-124)
  62 0032 8093 BC00 		sts 188,r24
  63               	.L6:
  64               	.LM11:
  65 0036 8091 BC00 		lds r24,188
  66 003a 87FF      		sbrs r24,7
  67 003c 00C0      		rjmp .L6
  68               	.LM12:
  69 003e 8091 B900 		lds r24,185
  70 0042 887F      		andi r24,lo8(-8)
  71 0044 8831      		cpi r24,lo8(24)
  72 0046 01F4      		brne .L5
  73               	.LM13:
  74 0048 6093 BB00 		sts 187,r22
  75 004c 84E8      		ldi r24,lo8(-124)
  76 004e 8093 BC00 		sts 188,r24
  77               	.L7:
  78               	.LM14:
  79 0052 8091 BC00 		lds r24,188
  80 0056 87FF      		sbrs r24,7
  81 0058 00C0      		rjmp .L7
  82               	.LM15:
  83 005a 8091 B900 		lds r24,185
  84 005e 887F      		andi r24,lo8(-8)
  85 0060 8832      		cpi r24,lo8(40)
  86 0062 01F4      		brne .L5
  87               	.LM16:
  88 0064 9093 BB00 		sts 187,r25
  89 0068 84E8      		ldi r24,lo8(-124)
  90 006a 8093 BC00 		sts 188,r24
  91               	.L8:
  92               	.LM17:
  93 006e 8091 BC00 		lds r24,188
  94 0072 87FF      		sbrs r24,7
  95 0074 00C0      		rjmp .L8
  96               	.LM18:
  97 0076 8091 B900 		lds r24,185
  98 007a 887F      		andi r24,lo8(-8)
  99 007c 8832      		cpi r24,lo8(40)
 100 007e 01F4      		brne .L5
 101               	.LM19:
 102 0080 84E9      		ldi r24,lo8(-108)
 103 0082 8093 BC00 		sts 188,r24
 104               	.LBB18:
 105               	.LBB19:
 106               	.LBB20:
 107               	.LBB21:
 108               	.LM20:
 109 0086 80E2      		ldi r24,lo8(20000)
 110 0088 9EE4      		ldi r25,hi8(20000)
 111               	.LVL2:
 112               	/* #APP */
 113               	 ;  105 "c:/winavr-20100110/lib/gcc/../../avr/include/util/delay_basic.h" 1
 114 008a 0197      		1: sbiw r24,1
 115 008c 01F4      		brne 1b
 116               	 ;  0 "" 2
 117               	/* #NOAPP */
 118 008e 80E0      		ldi r24,lo8(0)
 119               	.LVL3:
 120 0090 0895      		ret
 121               	.L5:
 122               	.LM21:
 123 0092 81E0      		ldi r24,lo8(1)
 124               	.LBE21:
 125               	.LBE20:
 126               	.LBE19:
 127               	.LBE18:
 128               	.LM22:
 129 0094 0895      		ret
 130               	.LFE9:
 132               	.global	I2C_Read
 134               	I2C_Read:
 135               	.LFB10:
 136               	.LM23:
 137               	.LVL4:
 138               	/* prologue: function */
 139               	/* frame size = 0 */
 140 0096 982F      		mov r25,r24
 141               	.LM24:
 142 0098 84EA      		ldi r24,lo8(-92)
 143               	.LVL5:
 144 009a 8093 BC00 		sts 188,r24
 145               	.L16:
 146               	.LM25:
 147 009e 8091 BC00 		lds r24,188
 148 00a2 87FF      		sbrs r24,7
 149 00a4 00C0      		rjmp .L16
 150               	.LM26:
 151 00a6 8091 B900 		lds r24,185
 152 00aa 887F      		andi r24,lo8(-8)
 153 00ac 8830      		cpi r24,lo8(8)
 154 00ae 01F0      		breq .+2
 155 00b0 00C0      		rjmp .L17
 156               	.LM27:
 157 00b2 80E9      		ldi r24,lo8(-112)
 158 00b4 8093 BB00 		sts 187,r24
 159 00b8 84E8      		ldi r24,lo8(-124)
 160 00ba 8093 BC00 		sts 188,r24
 161               	.L18:
 162               	.LM28:
 163 00be 8091 BC00 		lds r24,188
 164 00c2 87FF      		sbrs r24,7
 165 00c4 00C0      		rjmp .L18
 166               	.LM29:
 167 00c6 8091 B900 		lds r24,185
 168 00ca 887F      		andi r24,lo8(-8)
 169 00cc 8831      		cpi r24,lo8(24)
 170 00ce 01F0      		breq .+2
 171 00d0 00C0      		rjmp .L17
 172               	.LM30:
 173 00d2 9093 BB00 		sts 187,r25
 174 00d6 84E8      		ldi r24,lo8(-124)
 175 00d8 8093 BC00 		sts 188,r24
 176               	.L19:
 177               	.LM31:
 178 00dc 8091 BC00 		lds r24,188
 179 00e0 87FF      		sbrs r24,7
 180 00e2 00C0      		rjmp .L19
 181               	.LM32:
 182 00e4 8091 B900 		lds r24,185
 183 00e8 887F      		andi r24,lo8(-8)
 184 00ea 8832      		cpi r24,lo8(40)
 185 00ec 01F0      		breq .+2
 186 00ee 00C0      		rjmp .L17
 187 00f0 8CED      		ldi r24,lo8(1500)
 188 00f2 95E0      		ldi r25,hi8(1500)
 189               	.LVL6:
 190               	.LBB22:
 191               	.LBB23:
 192               	.LBB24:
 193               	.LBB25:
 194               	.LM33:
 195 00f4 28EC      		ldi r18,lo8(200)
 196 00f6 30E0      		ldi r19,hi8(200)
 197               	.L20:
 198 00f8 F901      		movw r30,r18
 199               	.LVL7:
 200               	/* #APP */
 201               	 ;  105 "c:/winavr-20100110/lib/gcc/../../avr/include/util/delay_basic.h" 1
 202 00fa 3197      		1: sbiw r30,1
 203 00fc 01F4      		brne 1b
 204               	 ;  0 "" 2
 205               	/* #NOAPP */
 206               	.LBE25:
 207               	.LBE24:
 208               	.LM34:
 209 00fe 0197      		sbiw r24,1
 210               	.LM35:
 211 0100 01F4      		brne .L20
 212               	.LBE23:
 213               	.LBE22:
 214               	.LM36:
 215 0102 84EA      		ldi r24,lo8(-92)
 216               	.LVL8:
 217 0104 8093 BC00 		sts 188,r24
 218               	.L21:
 219               	.LM37:
 220 0108 8091 BC00 		lds r24,188
 221 010c 87FF      		sbrs r24,7
 222 010e 00C0      		rjmp .L21
 223               	.LM38:
 224 0110 8091 B900 		lds r24,185
 225 0114 887F      		andi r24,lo8(-8)
 226 0116 8031      		cpi r24,lo8(16)
 227 0118 01F4      		brne .L17
 228               	.LM39:
 229 011a 81E9      		ldi r24,lo8(-111)
 230 011c 8093 BB00 		sts 187,r24
 231 0120 84E8      		ldi r24,lo8(-124)
 232 0122 8093 BC00 		sts 188,r24
 233               	.L22:
 234               	.LM40:
 235 0126 8091 BC00 		lds r24,188
 236 012a 87FF      		sbrs r24,7
 237 012c 00C0      		rjmp .L22
 238               	.LM41:
 239 012e 8091 B900 		lds r24,185
 240 0132 887F      		andi r24,lo8(-8)
 241 0134 8034      		cpi r24,lo8(64)
 242 0136 01F4      		brne .L17
 243               	.LM42:
 244 0138 84E8      		ldi r24,lo8(-124)
 245 013a 8093 BC00 		sts 188,r24
 246               	.L23:
 247               	.LM43:
 248 013e 8091 BC00 		lds r24,188
 249 0142 87FF      		sbrs r24,7
 250 0144 00C0      		rjmp .L23
 251               	.LM44:
 252 0146 8091 B900 		lds r24,185
 253 014a 887F      		andi r24,lo8(-8)
 254 014c 8835      		cpi r24,lo8(88)
 255 014e 01F4      		brne .L17
 256               	.LM45:
 257 0150 9091 BB00 		lds r25,187
 258               	.LVL9:
 259               	.LM46:
 260 0154 84E8      		ldi r24,lo8(-124)
 261 0156 8093 BC00 		sts 188,r24
 262               	.L24:
 263               	.LM47:
 264 015a 8091 BC00 		lds r24,188
 265 015e 87FF      		sbrs r24,7
 266 0160 00C0      		rjmp .L24
 267               	.LM48:
 268 0162 8091 BB00 		lds r24,187
 269               	.LM49:
 270 0166 392F      		mov r19,r25
 271               	.LVL10:
 272 0168 20E0      		ldi r18,lo8(0)
 273               	.LVL11:
 274               	.LM50:
 275 016a 482F      		mov r20,r24
 276               	.LVL12:
 277 016c 50E0      		ldi r21,lo8(0)
 278               	.LVL13:
 279 016e 422B      		or r20,r18
 280 0170 532B      		or r21,r19
 281               	.LVL14:
 282               	.LM51:
 283 0172 84E9      		ldi r24,lo8(-108)
 284 0174 8093 BC00 		sts 188,r24
 285 0178 00C0      		rjmp .L25
 286               	.LVL15:
 287               	.L17:
 288               	.LM52:
 289 017a 41E0      		ldi r20,lo8(1)
 290 017c 50E0      		ldi r21,hi8(1)
 291               	.LVL16:
 292               	.L25:
 293               	.LM53:
 294 017e CA01      		movw r24,r20
 295               	.LVL17:
 296               	/* epilogue start */
 297 0180 0895      		ret
 298               	.LFE10:
 340               	.Letext0:
DEFINED SYMBOLS
                            *ABS*:00000000 iic.c
C:\Users\ADMINI~1\AppData\Local\Temp/ccKvRVY5.s:2      *ABS*:0000003f __SREG__
C:\Users\ADMINI~1\AppData\Local\Temp/ccKvRVY5.s:3      *ABS*:0000003e __SP_H__
C:\Users\ADMINI~1\AppData\Local\Temp/ccKvRVY5.s:4      *ABS*:0000003d __SP_L__
C:\Users\ADMINI~1\AppData\Local\Temp/ccKvRVY5.s:5      *ABS*:00000034 __CCP__
C:\Users\ADMINI~1\AppData\Local\Temp/ccKvRVY5.s:6      *ABS*:00000000 __tmp_reg__
C:\Users\ADMINI~1\AppData\Local\Temp/ccKvRVY5.s:7      *ABS*:00000001 __zero_reg__
C:\Users\ADMINI~1\AppData\Local\Temp/ccKvRVY5.s:18     .text:00000000 TWIInt
C:\Users\ADMINI~1\AppData\Local\Temp/ccKvRVY5.s:37     .text:00000010 I2C_Write
C:\Users\ADMINI~1\AppData\Local\Temp/ccKvRVY5.s:134    .text:00000096 I2C_Read

NO UNDEFINED SYMBOLS
